(dp0
I1
S'ROGERS PARK'
p1
sI2
S'WEST RIDGE'
p2
sI3
S'UPTOWN'
p3
sI4
S'LINCOLN SQUARE'
p4
sI5
S'NORTH CENTER'
p5
sI6
S'LAKE VIEW'
p6
sI7
S'LINCOLN PARK'
p7
sI8
S'NEAR NORTH SIDE'
p8
sI9
S'EDISON PARK'
p9
sI10
S'NORWOOD PARK'
p10
sI11
S'JEFFERSON PARK'
p11
sI12
S'FOREST GLEN'
p12
sI13
S'NORTH PARK'
p13
sI14
S'ALBANY PARK'
p14
sI15
S'PORTAGE PARK'
p15
sI16
S'IRVING PARK'
p16
sI17
S'DUNNING'
p17
sI18
S'MONTCLARE'
p18
sI19
S'BELMONT CRAGIN'
p19
sI20
S'HERMOSA'
p20
sI21
S'AVONDALE'
p21
sI22
S'LOGAN SQUARE'
p22
sI23
S'HUMBOLDT PARK'
p23
sI24
S'WEST TOWN'
p24
sI25
S'AUSTIN'
p25
sI26
S'WEST GARFIELD PARK'
p26
sI27
S'EAST GARFIELD PARK'
p27
sI28
S'NEAR WEST SIDE'
p28
sI29
S'NORTH LAWNDALE'
p29
sI30
S'SOUTH LAWNDALE'
p30
sI31
S'LOWER WEST SIDE'
p31
sI32
S'LOOP'
p32
sI33
S'NEAR SOUTH SIDE'
p33
sI34
S'ARMOUR SQUARE'
p34
sI35
S'DOUGLAS'
p35
sI36
S'OAKLAND'
p36
sI37
S'FULLER PARK'
p37
sI38
S'GRAND BOULEVARD'
p38
sI39
S'KENWOOD'
p39
sI40
S'WASHINGTON PARK'
p40
sI41
S'HYDE PARK'
p41
sI42
S'WOODLAWN'
p42
sI43
S'SOUTH SHORE'
p43
sI44
S'CHATHAM'
p44
sI45
S'AVALON PARK'
p45
sI46
S'SOUTH CHICAGO'
p46
sI47
S'BURNSIDE'
p47
sI48
S'CALUMET HEIGHTS'
p48
sI49
S'ROSELAND'
p49
sI50
S'PULLMAN'
p50
sI51
S'SOUTH DEERING'
p51
sI52
S'EAST SIDE'
p52
sI53
S'WEST PULLMAN'
p53
sI54
S'RIVERDALE'
p54
sI55
S'HEGEWISCH'
p55
sI56
S'GARFIELD RIDGE'
p56
sI57
S'ARCHER HEIGHTS'
p57
sI58
S'BRIGHTON PARK'
p58
sI59
S'MCKINLEY PARK'
p59
sI60
S'BRIDGEPORT'
p60
sI61
S'NEW CITY'
p61
sI62
S'WEST ELSDON'
p62
sI63
S'GAGE PARK'
p63
sI64
S'CLEARING'
p64
sI65
S'WEST LAWN'
p65
sI66
S'CHICAGO LAWN'
p66
sI67
S'WEST ENGLEWOOD'
p67
sI68
S'ENGLEWOOD'
p68
sI69
S'GREATER GRAND CROSSING'
p69
sI70
S'ASHBURN'
p70
sI71
S'AUBURN GRESHAM'
p71
sI72
S'BEVERLY'
p72
sI73
S'WASHINGTON HEIGHTS'
p73
sI74
S'MOUNT GREENWOOD'
p74
sI75
S'MORGAN PARK'
p75
sI76
S'OHARE'
p76
sI77
S'EDGEWATER'
p77
s.